(lp0
(lp1
(F1.0
F1.0
tp2
a(F1.0
F7.0
tp3
aa(ifollow_path
Room
p4
(dp5
S'visable'
p6
(dp7
(ilos
Segment
p8
(dp9
S'p2'
p10
ccopy_reg
_reconstructor
p11
(clos
Endpoint
p12
c__builtin__
object
p13
Ntp14
Rp15
(dp16
S'begin'
p17
I00
sS'visualize'
p18
I00
sS'angle'
p19
F-1.9890206563741257
sS'y'
p20
F0.0
sS'x'
p21
F5.0
sS'segment'
p22
g8
sbsS'p1'
p23
g11
(g12
g13
Ntp24
Rp25
(dp26
g17
I01
sg18
I00
sg19
F-2.356194490192345
sS'visible'
p27
I01
sg20
F0.0
sg21
F0.0
sg22
g8
sbsS'd'
p28
F123.25
sb(lp29
s(ilos
Segment
p30
(dp31
g10
g11
(g12
g13
Ntp32
Rp33
(dp34
g17
I01
sg18
I00
sg19
F-2.498091544796509
sg20
F6.0
sg21
F5.0
sg22
g30
sbsg23
g11
(g12
g13
Ntp35
Rp36
(dp37
g17
I00
sg18
I00
sg19
F-1.9890206563741257
sg27
I01
sg20
F0.0
sg21
F5.0
sg22
g30
sbsg28
F52.0
sb(lp38
s(ilos
Segment
p39
(dp40
g10
g11
(g12
g13
Ntp41
Rp42
(dp43
g17
I00
sg18
I00
sg19
F-1.2490457723982544
sg20
F6.0
sg21
F10.0
sg22
g39
sbsg23
g11
(g12
g13
Ntp44
Rp45
(dp46
g17
I01
sg18
I00
sg19
F-2.498091544796509
sg27
I01
sg20
F6.0
sg21
F5.0
sg22
g39
sbsg28
F11.25
sb(lp47
s(ilos
Segment
p48
(dp49
g10
g11
(g12
g13
Ntp50
Rp51
(dp52
g17
I00
sg18
I00
sg19
F0.7853981633974483
sg20
F10.0
sg21
F10.0
sg22
g48
sbsg23
g11
(g12
g13
Ntp53
Rp54
(dp55
g17
I01
sg18
I00
sg19
F-1.2490457723982544
sg27
I01
sg20
F6.0
sg21
F10.0
sg22
g48
sbsg28
F2.0
sb(lp56
s(ilos
Segment
p57
(dp58
g10
g11
(g12
g13
Ntp59
Rp60
(dp61
g17
I00
sg18
I00
sg19
F3.0309354324158977
sg20
F10.0
sg21
F0.0
sg22
g57
sbsg23
g11
(g12
g13
Ntp62
Rp63
(dp64
g17
I01
sg18
I00
sg19
F0.7853981633974483
sg27
I01
sg20
F10.0
sg21
F10.0
sg22
g57
sbsg28
F17.0
sb(lp65
s(ilos
Segment
p66
(dp67
g10
g11
(g12
g13
Ntp68
Rp69
(dp70
g17
I00
sg18
I00
sg19
F-2.356194490192345
sg20
F0.0
sg21
F0.0
sg22
g66
sbsg23
g11
(g12
g13
Ntp71
Rp72
(dp73
g17
I01
sg18
I00
sg19
F3.0309354324158977
sg27
I01
sg20
F10.0
sg21
F0.0
sg22
g66
sbsg28
F97.0
sb(lp74
ssS'segments'
p75
(lp76
g8
ag30
ag39
ag48
ag57
ag66
asba(ilos
Visibility
p77
(dp78
g75
g76
sS'endpoints'
p79
(lp80
g45
ag33
ag25
ag69
ag36
ag15
ag54
ag42
ag63
ag51
ag72
ag60
asS'open'
p81
(lp82
g66
asS'center'
p83
g11
(clos
Point
p84
g13
Ntp85
Rp86
(dp87
g20
F9.0
sg21
F9.0
sbsS'triangles'
p88
(lp89
(g11
(g84
g13
Ntp90
Rp91
(dp92
g20
F9.999999999999996
sg21
F0.0
sbg11
(g84
g13
Ntp93
Rp94
(dp95
g20
F2.2500000000000098
sg21
F0.0
sbg66
tp96
a(g11
(g84
g13
Ntp97
Rp98
(dp99
g20
F6.0
sg21
F4.999999999999994
sbg11
(g84
g13
Ntp100
Rp101
(dp102
g20
F6.0
sg21
F9.999999999999998
sbg39
tp103
a(g11
(g84
g13
Ntp104
Rp105
(dp106
g20
F5.999999999999995
sg21
F10.0
sbg11
(g84
g13
Ntp107
Rp108
(dp109
g20
F10.0
sg21
F10.0
sbg48
tp110
a(g11
(g84
g13
Ntp111
Rp112
(dp113
g20
F10.0
sg21
F10.0
sbg11
(g84
g13
Ntp114
Rp115
(dp116
g20
F10.0
sg21
F-3.197442310920451e-14
sbg57
tp117
asba.